; Function Attrs: mustprogress uwtable
define hidden noundef i64 @_ZNK6google8protobuf37EnumDescriptorProto_EnumReservedRange12ByteSizeLongEv(ptr noundef nonnull align 8 dereferenceable(32) %0) unnamed_addr #3 align 2 {
  %2 = getelementptr inbounds nuw i8, ptr %0, i64 16
  %3 = load i32, ptr %2, align 8, !tbaa !58
  %4 = and i32 %3, 3
  %.not = icmp eq i32 %4, 0
  br i1 %.not, label %30, label %5

5:                                                ; preds = %1
  %6 = and i32 %3, 1
  %.not6 = icmp eq i32 %6, 0
  br i1 %.not6, label %17, label %7

7:                                                ; preds = %5
  %8 = getelementptr inbounds nuw i8, ptr %0, i64 24
  %9 = load i32, ptr %8, align 8, !tbaa !295
  %10 = or i32 %9, 1
  %11 = sext i32 %10 to i64
  %12 = tail call range(i64 0, 65) i64 @llvm.ctlz.i64(i64 %11, i1 true)
  %13 = xor i64 %12, 63
  %14 = mul nuw nsw i64 %13, 9
  %15 = add nuw nsw i64 %14, 137
  %16 = lshr i64 %15, 6
  br label %17

17:                                               ; preds = %7, %5
  %.1 = phi i64 [ %16, %7 ], [ 0, %5 ]
  %18 = and i32 %3, 2
  %.not7 = icmp eq i32 %18, 0
  br i1 %.not7, label %30, label %19

19:                                               ; preds = %17
  %20 = getelementptr inbounds nuw i8, ptr %0, i64 28
  %21 = load i32, ptr %20, align 4, !tbaa !297
  %22 = or i32 %21, 1
  %23 = sext i32 %22 to i64
  %24 = tail call range(i64 0, 65) i64 @llvm.ctlz.i64(i64 %23, i1 true)
  %25 = xor i64 %24, 63
  %26 = mul nuw nsw i64 %25, 9
  %27 = add nuw nsw i64 %26, 137
  %28 = lshr i64 %27, 6
  %29 = add nuw nsw i64 %28, %.1
  br label %30

30:                                               ; preds = %17, %19, %1
  %.0 = phi i64 [ %29, %19 ], [ %.1, %17 ], [ 0, %1 ]
  %31 = getelementptr inbounds nuw i8, ptr %0, i64 20
  %32 = tail call noundef i64 @_ZNK6google8protobuf7Message29MaybeComputeUnknownFieldsSizeEmPNS0_8internal10CachedSizeE(ptr noundef nonnull align 8 dereferenceable(16) %0, i64 noundef %.0, ptr noundef nonnull %31)
  ret i64 %32
}